target datalayout = "e-m:e-p270:32:32-p271:32:32-p272:64:64-i64:64-i128:128-f80:128-n8:16:32:64-S128"
target triple = "x86_64-pc-linux-gnu"

%"class.llvm::StringRef" = type { ptr, i64 }
%"class.llvm::codeview::TypeIndex" = type { %"struct.llvm::support::detail::packed_endian_specific_integral" }
%"struct.llvm::support::detail::packed_endian_specific_integral" = type { %struct.anon }
%struct.anon = type { [4 x i8] }
%"class.llvm::codeview::TypeDumpVisitor" = type { %"class.llvm::codeview::TypeVisitorCallbacks", ptr, i8, ptr, ptr }
%"class.llvm::codeview::TypeVisitorCallbacks" = type { ptr }
%"class.llvm::Error" = type { ptr }
%"class.llvm::ErrorSuccess" = type { %"class.llvm::Error" }
%"class.llvm::codeview::TypeRecord" = type { i16 }
%"class.llvm::codeview::UdtModSourceLineRecord" = type <{ %"class.llvm::codeview::TypeRecord", %"class.llvm::codeview::TypeIndex", %"class.llvm::codeview::TypeIndex", [2 x i8], i32, i16, [2 x i8] }>

@.str.64 = private unnamed_addr constant [4 x i8] c"UDT\00", align 1
@.str.65 = private unnamed_addr constant [11 x i8] c"SourceFile\00", align 1
@.str.66 = private unnamed_addr constant [11 x i8] c"LineNumber\00", align 1
@.str.67 = private unnamed_addr constant [7 x i8] c"Module\00", align 1

; Function Attrs: mustprogress nounwind uwtable
define linkonce_odr hidden void @_ZN4llvm5Error6setPtrEPNS_13ErrorInfoBaseE(ptr noundef nonnull align 8 dereferenceable(8) %0, ptr noundef %1) #0 comdat align 2 {
  %3 = alloca ptr, align 8
  %4 = alloca ptr, align 8
  store ptr %0, ptr %3, align 8
  store ptr %1, ptr %4, align 8
  %5 = load ptr, ptr %3, align 8
  %6 = load ptr, ptr %4, align 8
  %7 = getelementptr inbounds nuw %"class.llvm::Error", ptr %5, i32 0, i32 0
  store ptr %6, ptr %7, align 8
  ret void
}

; Function Attrs: mustprogress nounwind uwtable
define linkonce_odr hidden noundef ptr @_ZNK4llvm5Error6getPtrEv(ptr noundef nonnull align 8 dereferenceable(8) %0) #0 comdat align 2 {
  %2 = alloca ptr, align 8
  store ptr %0, ptr %2, align 8
  %3 = load ptr, ptr %2, align 8
  %4 = getelementptr inbounds nuw %"class.llvm::Error", ptr %3, i32 0, i32 0
  %5 = load ptr, ptr %4, align 8
  ret ptr %5
}

; Function Attrs: mustprogress nounwind uwtable
define linkonce_odr hidden void @_ZN4llvm5Error15assertIsCheckedEv(ptr noundef nonnull align 8 dereferenceable(8) %0) #0 comdat align 2 {
  %2 = alloca ptr, align 8
  store ptr %0, ptr %2, align 8
  ret void
}

; Function Attrs: mustprogress nounwind uwtable
define linkonce_odr hidden void @_ZN4llvm5ErrorC2Ev(ptr noundef nonnull align 8 dereferenceable(8) %0) unnamed_addr #0 comdat align 2 {
  %2 = alloca ptr, align 8
  store ptr %0, ptr %2, align 8
  %3 = load ptr, ptr %2, align 8
  %4 = getelementptr inbounds nuw %"class.llvm::Error", ptr %3, i32 0, i32 0
  store ptr null, ptr %4, align 8
  call void @_ZN4llvm5Error6setPtrEPNS_13ErrorInfoBaseE(ptr noundef nonnull align 8 dereferenceable(8) %3, ptr noundef null)
  call void @_ZN4llvm5Error10setCheckedEb(ptr noundef nonnull align 8 dereferenceable(8) %3, i1 noundef zeroext false)
  ret void
}

; Function Attrs: mustprogress nounwind uwtable
define linkonce_odr hidden void @_ZN4llvm5ErrorD2Ev(ptr noundef nonnull align 8 dereferenceable(8) %0) unnamed_addr #0 comdat align 2 {
  %2 = alloca ptr, align 8
  store ptr %0, ptr %2, align 8
  %3 = load ptr, ptr %2, align 8
  call void @_ZN4llvm5Error15assertIsCheckedEv(ptr noundef nonnull align 8 dereferenceable(8) %3)
  %4 = call noundef ptr @_ZNK4llvm5Error6getPtrEv(ptr noundef nonnull align 8 dereferenceable(8) %3)
  %5 = icmp eq ptr %4, null
  br i1 %5, label %10, label %6

6:                                                ; preds = %1
  %7 = load ptr, ptr %4, align 8
  %8 = getelementptr inbounds ptr, ptr %7, i64 1
  %9 = load ptr, ptr %8, align 8
  call void %9(ptr noundef nonnull align 8 dereferenceable(8) %4) #10
  br label %10

10:                                               ; preds = %6, %1
  ret void
}

; Function Attrs: mustprogress nounwind uwtable
define linkonce_odr hidden noundef nonnull align 8 dereferenceable(8) ptr @_ZN4llvm5ErroraSEOS0_(ptr noundef nonnull align 8 dereferenceable(8) %0, ptr noundef nonnull align 8 dereferenceable(8) %1) #0 comdat align 2 {
  %3 = alloca ptr, align 8
  %4 = alloca ptr, align 8
  store ptr %0, ptr %3, align 8
  store ptr %1, ptr %4, align 8
  %5 = load ptr, ptr %3, align 8
  call void @_ZN4llvm5Error15assertIsCheckedEv(ptr noundef nonnull align 8 dereferenceable(8) %5)
  %6 = load ptr, ptr %4, align 8
  %7 = call noundef ptr @_ZNK4llvm5Error6getPtrEv(ptr noundef nonnull align 8 dereferenceable(8) %6)
  call void @_ZN4llvm5Error6setPtrEPNS_13ErrorInfoBaseE(ptr noundef nonnull align 8 dereferenceable(8) %5, ptr noundef %7)
  call void @_ZN4llvm5Error10setCheckedEb(ptr noundef nonnull align 8 dereferenceable(8) %5, i1 noundef zeroext false)
  %8 = load ptr, ptr %4, align 8
  call void @_ZN4llvm5Error6setPtrEPNS_13ErrorInfoBaseE(ptr noundef nonnull align 8 dereferenceable(8) %8, ptr noundef null)
  %9 = load ptr, ptr %4, align 8
  call void @_ZN4llvm5Error10setCheckedEb(ptr noundef nonnull align 8 dereferenceable(8) %9, i1 noundef zeroext true)
  ret ptr %5
}

; Function Attrs: mustprogress nounwind uwtable
define linkonce_odr hidden void @_ZN4llvm5Error10setCheckedEb(ptr noundef nonnull align 8 dereferenceable(8) %0, i1 noundef zeroext %1) #0 comdat align 2 {
  %3 = alloca ptr, align 8
  %4 = alloca i8, align 1
  store ptr %0, ptr %3, align 8
  %5 = zext i1 %1 to i8
  store i8 %5, ptr %4, align 1
  ret void
}

; Function Attrs: mustprogress nounwind uwtable
define linkonce_odr hidden void @_ZN4llvm12ErrorSuccessC2Ev(ptr noundef nonnull align 8 dereferenceable(8) %0) unnamed_addr #0 comdat align 2 {
  %2 = alloca ptr, align 8
  store ptr %0, ptr %2, align 8
  %3 = load ptr, ptr %2, align 8
  call void @_ZN4llvm5ErrorC2Ev(ptr noundef nonnull align 8 dereferenceable(8) %3)
  ret void
}

; Function Attrs: mustprogress nounwind uwtable
define linkonce_odr hidden noundef nonnull align 8 dereferenceable(8) ptr @_ZNK4llvm8codeview15TypeDumpVisitor14getSourceTypesEv(ptr noundef nonnull align 8 dereferenceable(40) %0) #0 comdat align 2 {
  %2 = alloca ptr, align 8
  store ptr %0, ptr %2, align 8
  %3 = load ptr, ptr %2, align 8
  %4 = getelementptr inbounds nuw %"class.llvm::codeview::TypeDumpVisitor", ptr %3, i32 0, i32 4
  %5 = load ptr, ptr %4, align 8
  %6 = icmp ne ptr %5, null
  br i1 %6, label %7, label %10

7:                                                ; preds = %1
  %8 = getelementptr inbounds nuw %"class.llvm::codeview::TypeDumpVisitor", ptr %3, i32 0, i32 4
  %9 = load ptr, ptr %8, align 8
  br label %13

10:                                               ; preds = %1
  %11 = getelementptr inbounds nuw %"class.llvm::codeview::TypeDumpVisitor", ptr %3, i32 0, i32 3
  %12 = load ptr, ptr %11, align 8
  br label %13

13:                                               ; preds = %10, %7
  %14 = phi ptr [ %9, %7 ], [ %12, %10 ]
  ret ptr %14
}

; Function Attrs: mustprogress nounwind uwtable
define linkonce_odr hidden noundef i64 @_ZNSt11char_traitsIcE6lengthEPKc(ptr noundef %0) #0 comdat align 2 {
  %2 = alloca ptr, align 8
  store ptr %0, ptr %2, align 8
  %3 = load ptr, ptr %2, align 8
  %4 = call i64 @strlen(ptr noundef %3) #10
  ret i64 %4
}

; Function Attrs: mustprogress nounwind uwtable
define linkonce_odr hidden void @_ZN4llvm12ErrorSuccessD2Ev(ptr noundef nonnull align 8 dereferenceable(8) %0) unnamed_addr #0 comdat align 2 {
  %2 = alloca ptr, align 8
  store ptr %0, ptr %2, align 8
  %3 = load ptr, ptr %2, align 8
  call void @_ZN4llvm5ErrorD2Ev(ptr noundef nonnull align 8 dereferenceable(8) %3) #10
  ret void
}

; Function Attrs: mustprogress nounwind uwtable
define linkonce_odr hidden void @_ZN4llvm5ErrorC2EOS0_(ptr noundef nonnull align 8 dereferenceable(8) %0, ptr noundef nonnull align 8 dereferenceable(8) %1) unnamed_addr #0 comdat align 2 {
  %3 = alloca ptr, align 8
  %4 = alloca ptr, align 8
  store ptr %0, ptr %3, align 8
  store ptr %1, ptr %4, align 8
  %5 = load ptr, ptr %3, align 8
  %6 = getelementptr inbounds nuw %"class.llvm::Error", ptr %5, i32 0, i32 0
  store ptr null, ptr %6, align 8
  call void @_ZN4llvm5Error10setCheckedEb(ptr noundef nonnull align 8 dereferenceable(8) %5, i1 noundef zeroext true)
  %7 = load ptr, ptr %4, align 8
  %8 = call noundef nonnull align 8 dereferenceable(8) ptr @_ZN4llvm5ErroraSEOS0_(ptr noundef nonnull align 8 dereferenceable(8) %5, ptr noundef nonnull align 8 dereferenceable(8) %7)
  ret void
}

; Function Attrs: mustprogress nounwind uwtable
define linkonce_odr hidden void @_ZN4llvm5Error7successEv(ptr dead_on_unwind noalias writable sret(%"class.llvm::ErrorSuccess") align 8 %0) #0 comdat align 2 {
  %2 = alloca ptr, align 8
  store ptr %0, ptr %2, align 8
  call void @llvm.memset.p0.i64(ptr align 8 %0, i8 0, i64 8, i1 false)
  call void @_ZN4llvm12ErrorSuccessC2Ev(ptr noundef nonnull align 8 dereferenceable(8) %0)
  ret void
}

; Function Attrs: mustprogress nounwind uwtable
define linkonce_odr hidden noundef zeroext i16 @_ZNK4llvm8codeview22UdtModSourceLineRecord9getModuleEv(ptr noundef nonnull align 4 dereferenceable(18) %0) #0 comdat align 2 {
  %2 = alloca ptr, align 8
  store ptr %0, ptr %2, align 8
  %3 = load ptr, ptr %2, align 8
  %4 = getelementptr inbounds nuw %"class.llvm::codeview::UdtModSourceLineRecord", ptr %3, i32 0, i32 5
  %5 = load i16, ptr %4, align 4
  ret i16 %5
}

; Function Attrs: mustprogress nounwind uwtable
define linkonce_odr hidden noundef i32 @_ZNK4llvm8codeview22UdtModSourceLineRecord13getLineNumberEv(ptr noundef nonnull align 4 dereferenceable(18) %0) #0 comdat align 2 {
  %2 = alloca ptr, align 8
  store ptr %0, ptr %2, align 8
  %3 = load ptr, ptr %2, align 8
  %4 = getelementptr inbounds nuw %"class.llvm::codeview::UdtModSourceLineRecord", ptr %3, i32 0, i32 4
  %5 = load i32, ptr %4, align 4
  ret i32 %5
}

; Function Attrs: mustprogress nounwind uwtable
define dso_local void @_ZNK4llvm8codeview15TypeDumpVisitor14printItemIndexENS_9StringRefENS0_9TypeIndexE(ptr noundef nonnull align 8 dereferenceable(40) %0, ptr %1, i64 %2, i32 %3) #0 align 2 {
  %5 = alloca %"class.llvm::StringRef", align 8
  %6 = alloca %"class.llvm::codeview::TypeIndex", align 1
  %7 = alloca ptr, align 8
  %8 = alloca %"class.llvm::StringRef", align 8
  %9 = alloca %"class.llvm::codeview::TypeIndex", align 1
  %10 = getelementptr inbounds nuw { ptr, i64 }, ptr %5, i32 0, i32 0
  store ptr %1, ptr %10, align 8
  %11 = getelementptr inbounds nuw { ptr, i64 }, ptr %5, i32 0, i32 1
  store i64 %2, ptr %11, align 8
  %12 = getelementptr inbounds nuw %"class.llvm::codeview::TypeIndex", ptr %6, i32 0, i32 0
  %13 = getelementptr inbounds nuw %"struct.llvm::support::detail::packed_endian_specific_integral", ptr %12, i32 0, i32 0
  %14 = getelementptr inbounds nuw %struct.anon, ptr %13, i32 0, i32 0
  store i32 %3, ptr %14, align 1
  store ptr %0, ptr %7, align 8
  %15 = load ptr, ptr %7, align 8
  %16 = getelementptr inbounds nuw %"class.llvm::codeview::TypeDumpVisitor", ptr %15, i32 0, i32 1
  %17 = load ptr, ptr %16, align 8
  call void @llvm.memcpy.p0.p0.i64(ptr align 8 %8, ptr align 8 %5, i64 16, i1 false)
  call void @llvm.memcpy.p0.p0.i64(ptr align 1 %9, ptr align 1 %6, i64 4, i1 false)
  %18 = call noundef nonnull align 8 dereferenceable(8) ptr @_ZNK4llvm8codeview15TypeDumpVisitor14getSourceTypesEv(ptr noundef nonnull align 8 dereferenceable(40) %15)
  %19 = getelementptr inbounds nuw { ptr, i64 }, ptr %8, i32 0, i32 0
  %20 = load ptr, ptr %19, align 8
  %21 = getelementptr inbounds nuw { ptr, i64 }, ptr %8, i32 0, i32 1
  %22 = load i64, ptr %21, align 8
  %23 = getelementptr inbounds nuw %"class.llvm::codeview::TypeIndex", ptr %9, i32 0, i32 0
  %24 = getelementptr inbounds nuw %"struct.llvm::support::detail::packed_endian_specific_integral", ptr %23, i32 0, i32 0
  %25 = getelementptr inbounds nuw %struct.anon, ptr %24, i32 0, i32 0
  %26 = load i32, ptr %25, align 1
  call void @_ZN4llvm8codeview14printTypeIndexERNS_13ScopedPrinterENS_9StringRefENS0_9TypeIndexERNS0_14TypeCollectionE(ptr noundef nonnull align 8 dereferenceable(44) %17, ptr %20, i64 %22, i32 %26, ptr noundef nonnull align 8 dereferenceable(8) %18)
  ret void
}

; Function Attrs: mustprogress nounwind uwtable
define linkonce_odr hidden i32 @_ZNK4llvm8codeview22UdtModSourceLineRecord13getSourceFileEv(ptr noundef nonnull align 4 dereferenceable(18) %0) #0 comdat align 2 {
  %2 = alloca %"class.llvm::codeview::TypeIndex", align 1
  %3 = alloca ptr, align 8
  store ptr %0, ptr %3, align 8
  %4 = load ptr, ptr %3, align 8
  %5 = getelementptr inbounds nuw %"class.llvm::codeview::UdtModSourceLineRecord", ptr %4, i32 0, i32 2
  call void @llvm.memcpy.p0.p0.i64(ptr align 1 %2, ptr align 2 %5, i64 4, i1 false)
  %6 = getelementptr inbounds nuw %"class.llvm::codeview::TypeIndex", ptr %2, i32 0, i32 0
  %7 = getelementptr inbounds nuw %"struct.llvm::support::detail::packed_endian_specific_integral", ptr %6, i32 0, i32 0
  %8 = getelementptr inbounds nuw %struct.anon, ptr %7, i32 0, i32 0
  %9 = load i32, ptr %8, align 1
  ret i32 %9
}

; Function Attrs: mustprogress nounwind uwtable
define dso_local void @_ZNK4llvm8codeview15TypeDumpVisitor14printTypeIndexENS_9StringRefENS0_9TypeIndexE(ptr noundef nonnull align 8 dereferenceable(40) %0, ptr %1, i64 %2, i32 %3) #0 align 2 {
  %5 = alloca %"class.llvm::StringRef", align 8
  %6 = alloca %"class.llvm::codeview::TypeIndex", align 1
  %7 = alloca ptr, align 8
  %8 = alloca %"class.llvm::StringRef", align 8
  %9 = alloca %"class.llvm::codeview::TypeIndex", align 1
  %10 = getelementptr inbounds nuw { ptr, i64 }, ptr %5, i32 0, i32 0
  store ptr %1, ptr %10, align 8
  %11 = getelementptr inbounds nuw { ptr, i64 }, ptr %5, i32 0, i32 1
  store i64 %2, ptr %11, align 8
  %12 = getelementptr inbounds nuw %"class.llvm::codeview::TypeIndex", ptr %6, i32 0, i32 0
  %13 = getelementptr inbounds nuw %"struct.llvm::support::detail::packed_endian_specific_integral", ptr %12, i32 0, i32 0
  %14 = getelementptr inbounds nuw %struct.anon, ptr %13, i32 0, i32 0
  store i32 %3, ptr %14, align 1
  store ptr %0, ptr %7, align 8
  %15 = load ptr, ptr %7, align 8
  %16 = getelementptr inbounds nuw %"class.llvm::codeview::TypeDumpVisitor", ptr %15, i32 0, i32 1
  %17 = load ptr, ptr %16, align 8
  call void @llvm.memcpy.p0.p0.i64(ptr align 8 %8, ptr align 8 %5, i64 16, i1 false)
  call void @llvm.memcpy.p0.p0.i64(ptr align 1 %9, ptr align 1 %6, i64 4, i1 false)
  %18 = getelementptr inbounds nuw %"class.llvm::codeview::TypeDumpVisitor", ptr %15, i32 0, i32 3
  %19 = load ptr, ptr %18, align 8
  %20 = getelementptr inbounds nuw { ptr, i64 }, ptr %8, i32 0, i32 0
  %21 = load ptr, ptr %20, align 8
  %22 = getelementptr inbounds nuw { ptr, i64 }, ptr %8, i32 0, i32 1
  %23 = load i64, ptr %22, align 8
  %24 = getelementptr inbounds nuw %"class.llvm::codeview::TypeIndex", ptr %9, i32 0, i32 0
  %25 = getelementptr inbounds nuw %"struct.llvm::support::detail::packed_endian_specific_integral", ptr %24, i32 0, i32 0
  %26 = getelementptr inbounds nuw %struct.anon, ptr %25, i32 0, i32 0
  %27 = load i32, ptr %26, align 1
  call void @_ZN4llvm8codeview14printTypeIndexERNS_13ScopedPrinterENS_9StringRefENS0_9TypeIndexERNS0_14TypeCollectionE(ptr noundef nonnull align 8 dereferenceable(44) %17, ptr %21, i64 %23, i32 %27, ptr noundef nonnull align 8 dereferenceable(8) %19)
  ret void
}

; Function Attrs: mustprogress nounwind uwtable
define linkonce_odr hidden i32 @_ZNK4llvm8codeview22UdtModSourceLineRecord6getUDTEv(ptr noundef nonnull align 4 dereferenceable(18) %0) #0 comdat align 2 {
  %2 = alloca %"class.llvm::codeview::TypeIndex", align 1
  %3 = alloca ptr, align 8
  store ptr %0, ptr %3, align 8
  %4 = load ptr, ptr %3, align 8
  %5 = getelementptr inbounds nuw %"class.llvm::codeview::UdtModSourceLineRecord", ptr %4, i32 0, i32 1
  call void @llvm.memcpy.p0.p0.i64(ptr align 1 %2, ptr align 2 %5, i64 4, i1 false)
  %6 = getelementptr inbounds nuw %"class.llvm::codeview::TypeIndex", ptr %2, i32 0, i32 0
  %7 = getelementptr inbounds nuw %"struct.llvm::support::detail::packed_endian_specific_integral", ptr %6, i32 0, i32 0
  %8 = getelementptr inbounds nuw %struct.anon, ptr %7, i32 0, i32 0
  %9 = load i32, ptr %8, align 1
  ret i32 %9
}

; Function Attrs: mustprogress nounwind uwtable
define linkonce_odr hidden void @_ZN4llvm9StringRefC2EPKc(ptr noundef nonnull align 8 dereferenceable(16) %0, ptr noundef %1) unnamed_addr #0 comdat align 2 {
  %3 = alloca ptr, align 8
  %4 = alloca ptr, align 8
  store ptr %0, ptr %3, align 8
  store ptr %1, ptr %4, align 8
  %5 = load ptr, ptr %3, align 8
  %6 = getelementptr inbounds nuw %"class.llvm::StringRef", ptr %5, i32 0, i32 0
  %7 = load ptr, ptr %4, align 8
  store ptr %7, ptr %6, align 8
  %8 = getelementptr inbounds nuw %"class.llvm::StringRef", ptr %5, i32 0, i32 1
  %9 = load ptr, ptr %4, align 8
  %10 = icmp ne ptr %9, null
  br i1 %10, label %11, label %14

11:                                               ; preds = %2
  %12 = load ptr, ptr %4, align 8
  %13 = call noundef i64 @_ZNSt11char_traitsIcE6lengthEPKc(ptr noundef %12)
  br label %15

14:                                               ; preds = %2
  br label %15

15:                                               ; preds = %14, %11
  %16 = phi i64 [ %13, %11 ], [ 0, %14 ]
  store i64 %16, ptr %8, align 8
  ret void
}

; Function Attrs: mustprogress nounwind uwtable
define dso_local void @_ZN4llvm8codeview15TypeDumpVisitor16visitKnownRecordERNS0_8CVRecordINS0_12TypeLeafKindEEERNS0_22UdtModSourceLineRecordE(ptr dead_on_unwind noalias writable sret(%"class.llvm::Error") align 8 %0, ptr noundef nonnull align 8 dereferenceable(40) %1, ptr noundef nonnull align 8 dereferenceable(16) %2, ptr noundef nonnull align 4 dereferenceable(18) %3) unnamed_addr #0 align 2 {
  %5 = alloca ptr, align 8
  %6 = alloca ptr, align 8
  %7 = alloca ptr, align 8
  %8 = alloca ptr, align 8
  %9 = alloca %"class.llvm::StringRef", align 8
  %10 = alloca %"class.llvm::codeview::TypeIndex", align 1
  %11 = alloca %"class.llvm::StringRef", align 8
  %12 = alloca %"class.llvm::codeview::TypeIndex", align 1
  %13 = alloca %"class.llvm::StringRef", align 8
  %14 = alloca %"class.llvm::StringRef", align 8
  %15 = alloca %"class.llvm::ErrorSuccess", align 8
  store ptr %0, ptr %5, align 8
  store ptr %1, ptr %6, align 8
  store ptr %2, ptr %7, align 8
  store ptr %3, ptr %8, align 8
  %16 = load ptr, ptr %6, align 8
  call void @_ZN4llvm9StringRefC2EPKc(ptr noundef nonnull align 8 dereferenceable(16) %9, ptr noundef @.str.64)
  %17 = load ptr, ptr %8, align 8
  %18 = call i32 @_ZNK4llvm8codeview22UdtModSourceLineRecord6getUDTEv(ptr noundef nonnull align 4 dereferenceable(18) %17)
  %19 = getelementptr inbounds nuw %"class.llvm::codeview::TypeIndex", ptr %10, i32 0, i32 0
  %20 = getelementptr inbounds nuw %"struct.llvm::support::detail::packed_endian_specific_integral", ptr %19, i32 0, i32 0
  %21 = getelementptr inbounds nuw %struct.anon, ptr %20, i32 0, i32 0
  store i32 %18, ptr %21, align 1
  %22 = getelementptr inbounds nuw { ptr, i64 }, ptr %9, i32 0, i32 0
  %23 = load ptr, ptr %22, align 8
  %24 = getelementptr inbounds nuw { ptr, i64 }, ptr %9, i32 0, i32 1
  %25 = load i64, ptr %24, align 8
  %26 = getelementptr inbounds nuw %"class.llvm::codeview::TypeIndex", ptr %10, i32 0, i32 0
  %27 = getelementptr inbounds nuw %"struct.llvm::support::detail::packed_endian_specific_integral", ptr %26, i32 0, i32 0
  %28 = getelementptr inbounds nuw %struct.anon, ptr %27, i32 0, i32 0
  %29 = load i32, ptr %28, align 1
  call void @_ZNK4llvm8codeview15TypeDumpVisitor14printTypeIndexENS_9StringRefENS0_9TypeIndexE(ptr noundef nonnull align 8 dereferenceable(40) %16, ptr %23, i64 %25, i32 %29)
  call void @_ZN4llvm9StringRefC2EPKc(ptr noundef nonnull align 8 dereferenceable(16) %11, ptr noundef @.str.65)
  %30 = load ptr, ptr %8, align 8
  %31 = call i32 @_ZNK4llvm8codeview22UdtModSourceLineRecord13getSourceFileEv(ptr noundef nonnull align 4 dereferenceable(18) %30)
  %32 = getelementptr inbounds nuw %"class.llvm::codeview::TypeIndex", ptr %12, i32 0, i32 0
  %33 = getelementptr inbounds nuw %"struct.llvm::support::detail::packed_endian_specific_integral", ptr %32, i32 0, i32 0
  %34 = getelementptr inbounds nuw %struct.anon, ptr %33, i32 0, i32 0
  store i32 %31, ptr %34, align 1
  %35 = getelementptr inbounds nuw { ptr, i64 }, ptr %11, i32 0, i32 0
  %36 = load ptr, ptr %35, align 8
  %37 = getelementptr inbounds nuw { ptr, i64 }, ptr %11, i32 0, i32 1
  %38 = load i64, ptr %37, align 8
  %39 = getelementptr inbounds nuw %"class.llvm::codeview::TypeIndex", ptr %12, i32 0, i32 0
  %40 = getelementptr inbounds nuw %"struct.llvm::support::detail::packed_endian_specific_integral", ptr %39, i32 0, i32 0
  %41 = getelementptr inbounds nuw %struct.anon, ptr %40, i32 0, i32 0
  %42 = load i32, ptr %41, align 1
  call void @_ZNK4llvm8codeview15TypeDumpVisitor14printItemIndexENS_9StringRefENS0_9TypeIndexE(ptr noundef nonnull align 8 dereferenceable(40) %16, ptr %36, i64 %38, i32 %42)
  %43 = getelementptr inbounds nuw %"class.llvm::codeview::TypeDumpVisitor", ptr %16, i32 0, i32 1
  %44 = load ptr, ptr %43, align 8
  call void @_ZN4llvm9StringRefC2EPKc(ptr noundef nonnull align 8 dereferenceable(16) %13, ptr noundef @.str.66)
  %45 = load ptr, ptr %8, align 8
  %46 = call noundef i32 @_ZNK4llvm8codeview22UdtModSourceLineRecord13getLineNumberEv(ptr noundef nonnull align 4 dereferenceable(18) %45)
  %47 = getelementptr inbounds nuw { ptr, i64 }, ptr %13, i32 0, i32 0
  %48 = load ptr, ptr %47, align 8
  %49 = getelementptr inbounds nuw { ptr, i64 }, ptr %13, i32 0, i32 1
  %50 = load i64, ptr %49, align 8
  %51 = load ptr, ptr %44, align 8
  %52 = getelementptr inbounds ptr, ptr %51, i64 8
  %53 = load ptr, ptr %52, align 8
  call void %53(ptr noundef nonnull align 8 dereferenceable(44) %44, ptr %48, i64 %50, i32 noundef %46)
  %54 = getelementptr inbounds nuw %"class.llvm::codeview::TypeDumpVisitor", ptr %16, i32 0, i32 1
  %55 = load ptr, ptr %54, align 8
  call void @_ZN4llvm9StringRefC2EPKc(ptr noundef nonnull align 8 dereferenceable(16) %14, ptr noundef @.str.67)
  %56 = load ptr, ptr %8, align 8
  %57 = call noundef zeroext i16 @_ZNK4llvm8codeview22UdtModSourceLineRecord9getModuleEv(ptr noundef nonnull align 4 dereferenceable(18) %56)
  %58 = getelementptr inbounds nuw { ptr, i64 }, ptr %14, i32 0, i32 0
  %59 = load ptr, ptr %58, align 8
  %60 = getelementptr inbounds nuw { ptr, i64 }, ptr %14, i32 0, i32 1
  %61 = load i64, ptr %60, align 8
  %62 = load ptr, ptr %55, align 8
  %63 = getelementptr inbounds ptr, ptr %62, i64 6
  %64 = load ptr, ptr %63, align 8
  call void %64(ptr noundef nonnull align 8 dereferenceable(44) %55, ptr %59, i64 %61, i16 noundef zeroext %57)
  call void @_ZN4llvm5Error7successEv(ptr dead_on_unwind writable sret(%"class.llvm::ErrorSuccess") align 8 %15)
  call void @_ZN4llvm5ErrorC2EOS0_(ptr noundef nonnull align 8 dereferenceable(8) %0, ptr noundef nonnull align 8 dereferenceable(8) %15)
  call void @_ZN4llvm12ErrorSuccessD2Ev(ptr noundef nonnull align 8 dereferenceable(8) %15) #10
  ret void
}